; Function Attrs: nounwind uwtable
define dso_local noundef ptr @coerce_to_domain(ptr noundef %0, i32 noundef %1, i32 noundef %2, i32 noundef %3, i32 noundef %4, i32 noundef %5, i32 noundef %6, i1 noundef zeroext %7) local_unnamed_addr #0 {
  %9 = icmp eq i32 %1, %3
  br i1 %9, label %50, label %10

10:                                               ; preds = %8
  br i1 %7, label %11, label %12

11:                                               ; preds = %10
  tail call fastcc void @hide_coercion_node(ptr noundef %0)
  br label %12

12:                                               ; preds = %11, %10
  %13 = tail call i32 @exprTypmod(ptr noundef %0) #5
  %14 = icmp eq i32 %2, %13
  br i1 %14, label %coerce_type_typmod.exit, label %15

15:                                               ; preds = %12
  %16 = icmp slt i32 %2, 0
  br i1 %16, label %find_typmod_coercion_function.exit.thread, label %17

17:                                               ; preds = %15
  %18 = tail call ptr @typeidType(i32 noundef %1) #5
  %19 = getelementptr i8, ptr %18, i64 16
  %.val22.i = load ptr, ptr %19, align 8
  %20 = getelementptr inbounds nuw i8, ptr %.val22.i, i64 22
  %21 = load i8, ptr %20, align 2
  %22 = zext i8 %21 to i64
  %23 = getelementptr inbounds nuw i8, ptr %.val22.i, i64 %22
  %24 = getelementptr inbounds nuw i8, ptr %23, i64 92
  %25 = load i32, ptr %24, align 4
  %.not.i22 = icmp eq i32 %25, 0
  br i1 %.not.i22, label %30, label %26

26:                                               ; preds = %17
  %27 = getelementptr inbounds nuw i8, ptr %23, i64 88
  %28 = load i32, ptr %27, align 4
  %29 = icmp eq i32 %28, 6179
  %spec.select.i = select i1 %29, i32 3, i32 1
  %spec.select20.i = select i1 %29, i32 %25, i32 %1
  br label %30

30:                                               ; preds = %26, %17
  %.015.i = phi i32 [ 1, %17 ], [ %spec.select.i, %26 ]
  %.0.i23 = phi i32 [ %1, %17 ], [ %spec.select20.i, %26 ]
  tail call void @ReleaseSysCache(ptr noundef nonnull %18) #5
  %31 = zext i32 %.0.i23 to i64
  %32 = tail call ptr @SearchSysCache2(i32 noundef 12, i64 noundef %31, i64 noundef %31) #5
  %.not18.i = icmp eq ptr %32, null
  br i1 %.not18.i, label %find_typmod_coercion_function.exit.thread, label %find_typmod_coercion_function.exit

find_typmod_coercion_function.exit:               ; preds = %30
  %33 = getelementptr i8, ptr %32, i64 16
  %.val.i = load ptr, ptr %33, align 8
  %34 = getelementptr inbounds nuw i8, ptr %.val.i, i64 22
  %35 = load i8, ptr %34, align 2
  %36 = zext i8 %35 to i64
  %37 = getelementptr inbounds nuw i8, ptr %.val.i, i64 %36
  %38 = getelementptr inbounds nuw i8, ptr %37, i64 12
  %39 = load i32, ptr %38, align 4
  %.fr = freeze i32 %39
  tail call void @ReleaseSysCache(ptr noundef nonnull %32) #5
  %.not19.i = icmp eq i32 %.fr, 0
  br i1 %.not19.i, label %find_typmod_coercion_function.exit.thread, label %40

40:                                               ; preds = %find_typmod_coercion_function.exit
  %41 = tail call fastcc ptr @build_coercion_expression(ptr noundef %0, i32 noundef %.015.i, i32 noundef %.fr, i32 noundef %1, i32 noundef %2, i32 noundef %4, i32 noundef 2, i32 noundef %6)
  br label %coerce_type_typmod.exit

find_typmod_coercion_function.exit.thread:        ; preds = %find_typmod_coercion_function.exit, %30, %15
  %42 = tail call i32 @exprCollation(ptr noundef %0) #5
  %43 = tail call ptr @applyRelabelType(ptr noundef %0, i32 noundef %1, i32 noundef %2, i32 noundef %42, i32 noundef 2, i32 noundef %6, i1 noundef zeroext false) #5
  br label %coerce_type_typmod.exit

coerce_type_typmod.exit:                          ; preds = %12, %40, %find_typmod_coercion_function.exit.thread
  %.022.i = phi ptr [ %0, %12 ], [ %41, %40 ], [ %43, %find_typmod_coercion_function.exit.thread ]
  %44 = tail call noundef ptr @palloc0(i64 noundef 40) #5
  store i32 55, ptr %44, align 4
  %45 = getelementptr inbounds nuw i8, ptr %44, i64 8
  store ptr %.022.i, ptr %45, align 8
  %46 = getelementptr inbounds nuw i8, ptr %44, i64 16
  store i32 %3, ptr %46, align 8
  %47 = getelementptr inbounds nuw i8, ptr %44, i64 20
  store i32 -1, ptr %47, align 4
  %48 = getelementptr inbounds nuw i8, ptr %44, i64 28
  store i32 %5, ptr %48, align 4
  %49 = getelementptr inbounds nuw i8, ptr %44, i64 32
  store i32 %6, ptr %49, align 8
  br label %50

50:                                               ; preds = %8, %coerce_type_typmod.exit
  %.0 = phi ptr [ %44, %coerce_type_typmod.exit ], [ %0, %8 ]
  ret ptr %.0
}